target datalayout = "e-m:e-p270:32:32-p271:32:32-p272:64:64-i64:64-i128:128-f80:128-n8:16:32:64-S128"
target triple = "x86_64-pc-linux-gnu"

%struct.hwloc_obj = type { i32, ptr, i32, ptr, i64, ptr, i32, i32, ptr, ptr, ptr, i32, ptr, ptr, i32, ptr, ptr, ptr, i32, i32, ptr, i32, ptr, i32, ptr, ptr, ptr, ptr, ptr, ptr, i32, ptr, i64 }

; Function Attrs: inlinehint nounwind willreturn memory(read) uwtable
define internal ptr @hwloc_get_obj_inside_cpuset_by_depth(ptr noundef %0, ptr noundef %1, i32 noundef %2, i32 noundef %3) #2 {
  %5 = alloca ptr, align 8
  %6 = alloca ptr, align 8
  %7 = alloca ptr, align 8
  %8 = alloca i32, align 4
  %9 = alloca i32, align 4
  %10 = alloca ptr, align 8
  %11 = alloca i32, align 4
  %12 = alloca i32, align 4
  store ptr %0, ptr %6, align 8, !tbaa !3
  store ptr %1, ptr %7, align 8, !tbaa !27
  store i32 %2, ptr %8, align 4, !tbaa !19
  store i32 %3, ptr %9, align 4, !tbaa !19
  call void @llvm.lifetime.start.p0(i64 8, ptr %10) #10
  %13 = load ptr, ptr %6, align 8, !tbaa !3
  %14 = load i32, ptr %8, align 4, !tbaa !19
  %15 = call ptr @hwloc_get_obj_by_depth(ptr noundef %13, i32 noundef %14, i32 noundef 0) #11
  store ptr %15, ptr %10, align 8, !tbaa !8
  call void @llvm.lifetime.start.p0(i64 4, ptr %11) #10
  store i32 0, ptr %11, align 4, !tbaa !19
  %16 = load ptr, ptr %10, align 8, !tbaa !8
  %17 = icmp ne ptr %16, null
  br i1 %17, label %19, label %18

18:                                               ; preds = %4
  store ptr null, ptr %5, align 8
  store i32 1, ptr %12, align 4
  br label %50

19:                                               ; preds = %4
  br label %20

20:                                               ; preds = %45, %19
  %21 = load ptr, ptr %10, align 8, !tbaa !8
  %22 = icmp ne ptr %21, null
  br i1 %22, label %23, label %49

23:                                               ; preds = %20
  %24 = load ptr, ptr %10, align 8, !tbaa !8
  %25 = getelementptr inbounds nuw %struct.hwloc_obj, ptr %24, i32 0, i32 25
  %26 = load ptr, ptr %25, align 8, !tbaa !10
  %27 = call i32 @hwloc_bitmap_iszero(ptr noundef %26) #11
  %28 = icmp ne i32 %27, 0
  br i1 %28, label %45, label %29

29:                                               ; preds = %23
  %30 = load ptr, ptr %10, align 8, !tbaa !8
  %31 = getelementptr inbounds nuw %struct.hwloc_obj, ptr %30, i32 0, i32 25
  %32 = load ptr, ptr %31, align 8, !tbaa !10
  %33 = load ptr, ptr %7, align 8, !tbaa !27
  %34 = call i32 @hwloc_bitmap_isincluded(ptr noundef %32, ptr noundef %33) #11
  %35 = icmp ne i32 %34, 0
  br i1 %35, label %36, label %45

36:                                               ; preds = %29
  %37 = load i32, ptr %11, align 4, !tbaa !19
  %38 = load i32, ptr %9, align 4, !tbaa !19
  %39 = icmp eq i32 %37, %38
  br i1 %39, label %40, label %42

40:                                               ; preds = %36
  %41 = load ptr, ptr %10, align 8, !tbaa !8
  store ptr %41, ptr %5, align 8
  store i32 1, ptr %12, align 4
  br label %50

42:                                               ; preds = %36
  %43 = load i32, ptr %11, align 4, !tbaa !19
  %44 = add i32 %43, 1
  store i32 %44, ptr %11, align 4, !tbaa !19
  br label %45

45:                                               ; preds = %42, %29, %23
  %46 = load ptr, ptr %10, align 8, !tbaa !8
  %47 = getelementptr inbounds nuw %struct.hwloc_obj, ptr %46, i32 0, i32 8
  %48 = load ptr, ptr %47, align 8, !tbaa !117
  store ptr %48, ptr %10, align 8, !tbaa !8
  br label %20, !llvm.loop !150

49:                                               ; preds = %20
  store ptr null, ptr %5, align 8
  store i32 1, ptr %12, align 4
  br label %50

50:                                               ; preds = %49, %40, %18
  call void @llvm.lifetime.end.p0(i64 4, ptr %11) #10
  call void @llvm.lifetime.end.p0(i64 8, ptr %10) #10
  %51 = load ptr, ptr %5, align 8
  ret ptr %51
}

; Function Attrs: inlinehint nounwind willreturn memory(read) uwtable
define internal ptr @hwloc_get_obj_inside_cpuset_by_type(ptr noundef %0, ptr noundef %1, i32 noundef %2, i32 noundef %3) #2 {
  %5 = alloca ptr, align 8
  %6 = alloca ptr, align 8
  %7 = alloca ptr, align 8
  %8 = alloca i32, align 4
  %9 = alloca i32, align 4
  %10 = alloca i32, align 4
  %11 = alloca i32, align 4
  store ptr %0, ptr %6, align 8, !tbaa !3
  store ptr %1, ptr %7, align 8, !tbaa !27
  store i32 %2, ptr %8, align 4, !tbaa !19
  store i32 %3, ptr %9, align 4, !tbaa !19
  call void @llvm.lifetime.start.p0(i64 4, ptr %10) #10
  %12 = load ptr, ptr %6, align 8, !tbaa !3
  %13 = load i32, ptr %8, align 4, !tbaa !19
  %14 = call i32 @hwloc_get_type_depth(ptr noundef %12, i32 noundef %13)
  store i32 %14, ptr %10, align 4, !tbaa !19
  %15 = load i32, ptr %10, align 4, !tbaa !19
  %16 = icmp eq i32 %15, -1
  br i1 %16, label %20, label %17

17:                                               ; preds = %4
  %18 = load i32, ptr %10, align 4, !tbaa !19
  %19 = icmp eq i32 %18, -2
  br i1 %19, label %20, label %21

20:                                               ; preds = %17, %4
  store ptr null, ptr %5, align 8
  store i32 1, ptr %11, align 4
  br label %27

21:                                               ; preds = %17
  %22 = load ptr, ptr %6, align 8, !tbaa !3
  %23 = load ptr, ptr %7, align 8, !tbaa !27
  %24 = load i32, ptr %10, align 4, !tbaa !19
  %25 = load i32, ptr %9, align 4, !tbaa !19
  %26 = call ptr @hwloc_get_obj_inside_cpuset_by_depth(ptr noundef %22, ptr noundef %23, i32 noundef %24, i32 noundef %25) #11
  store ptr %26, ptr %5, align 8
  store i32 1, ptr %11, align 4
  br label %27

27:                                               ; preds = %21, %20
  call void @llvm.lifetime.end.p0(i64 4, ptr %10) #10
  %28 = load ptr, ptr %5, align 8
  ret ptr %28
}

; Function Attrs: nounwind uwtable
define void @prte_hwloc_build_map(ptr noundef %0, ptr noundef %1, i1 noundef zeroext %2, ptr noundef %3) #0 {
  %5 = alloca ptr, align 8
  %6 = alloca ptr, align 8
  %7 = alloca i8, align 1
  %8 = alloca ptr, align 8
  %9 = alloca i32, align 4
  %10 = alloca i32, align 4
  %11 = alloca i32, align 4
  %12 = alloca ptr, align 8
  %13 = alloca ptr, align 8
  store ptr %0, ptr %5, align 8, !tbaa !3
  store ptr %1, ptr %6, align 8, !tbaa !27
  %14 = zext i1 %2 to i8
  store i8 %14, ptr %7, align 1, !tbaa !20
  store ptr %3, ptr %8, align 8, !tbaa !27
  call void @llvm.lifetime.start.p0(i64 4, ptr %9) #10
  call void @llvm.lifetime.start.p0(i64 4, ptr %10) #10
  call void @llvm.lifetime.start.p0(i64 4, ptr %11) #10
  call void @llvm.lifetime.start.p0(i64 8, ptr %12) #10
  call void @llvm.lifetime.start.p0(i64 8, ptr %13) #10
  %15 = load ptr, ptr %8, align 8, !tbaa !27
  call void @hwloc_bitmap_zero(ptr noundef %15)
  %16 = load ptr, ptr %6, align 8, !tbaa !27
  %17 = call i32 @hwloc_bitmap_first(ptr noundef %16) #11
  store i32 %17, ptr %9, align 4, !tbaa !19
  store i32 0, ptr %10, align 4, !tbaa !19
  br label %18

18:                                               ; preds = %59, %4
  %19 = load i32, ptr %9, align 4, !tbaa !19
  %20 = icmp ne i32 %19, -1
  br i1 %20, label %21, label %65

21:                                               ; preds = %18
  %22 = load i8, ptr %7, align 1, !tbaa !20, !range !22, !noundef !23
  %23 = trunc i8 %22 to i1
  br i1 %23, label %24, label %28

24:                                               ; preds = %21
  %25 = load ptr, ptr %8, align 8, !tbaa !27
  %26 = load i32, ptr %9, align 4, !tbaa !19
  %27 = call i32 @hwloc_bitmap_set(ptr noundef %25, i32 noundef %26)
  br label %59

28:                                               ; preds = %21
  %29 = load ptr, ptr %5, align 8, !tbaa !3
  %30 = load ptr, ptr %6, align 8, !tbaa !27
  %31 = load i32, ptr %10, align 4, !tbaa !19
  %32 = call ptr @hwloc_get_obj_inside_cpuset_by_type(ptr noundef %29, ptr noundef %30, i32 noundef 3, i32 noundef %31) #11
  store ptr %32, ptr %12, align 8, !tbaa !8
  %33 = load ptr, ptr %12, align 8, !tbaa !8
  store ptr %33, ptr %13, align 8, !tbaa !8
  br label %34

34:                                               ; preds = %44, %28
  %35 = load ptr, ptr %13, align 8, !tbaa !8
  %36 = icmp ne ptr null, %35
  br i1 %36, label %37, label %42

37:                                               ; preds = %34
  %38 = load ptr, ptr %13, align 8, !tbaa !8
  %39 = getelementptr inbounds nuw %struct.hwloc_obj, ptr %38, i32 0, i32 0
  %40 = load i32, ptr %39, align 8, !tbaa !96
  %41 = icmp ne i32 %40, 2
  br label %42

42:                                               ; preds = %37, %34
  %43 = phi i1 [ false, %34 ], [ %41, %37 ]
  br i1 %43, label %44, label %48

44:                                               ; preds = %42
  %45 = load ptr, ptr %13, align 8, !tbaa !8
  %46 = getelementptr inbounds nuw %struct.hwloc_obj, ptr %45, i32 0, i32 10
  %47 = load ptr, ptr %46, align 8, !tbaa !124
  store ptr %47, ptr %13, align 8, !tbaa !8
  br label %34, !llvm.loop !125

48:                                               ; preds = %42
  store i32 0, ptr %11, align 4, !tbaa !19
  %49 = load ptr, ptr %13, align 8, !tbaa !8
  %50 = icmp ne ptr null, %49
  br i1 %50, label %51, label %55

51:                                               ; preds = %48
  %52 = load ptr, ptr %13, align 8, !tbaa !8
  %53 = getelementptr inbounds nuw %struct.hwloc_obj, ptr %52, i32 0, i32 7
  %54 = load i32, ptr %53, align 4, !tbaa !126
  store i32 %54, ptr %11, align 4, !tbaa !19
  br label %55

55:                                               ; preds = %51, %48
  %56 = load ptr, ptr %8, align 8, !tbaa !27
  %57 = load i32, ptr %11, align 4, !tbaa !19
  %58 = call i32 @hwloc_bitmap_set(ptr noundef %56, i32 noundef %57)
  br label %59

59:                                               ; preds = %55, %24
  %60 = load ptr, ptr %6, align 8, !tbaa !27
  %61 = load i32, ptr %9, align 4, !tbaa !19
  %62 = call i32 @hwloc_bitmap_next(ptr noundef %60, i32 noundef %61) #11
  store i32 %62, ptr %9, align 4, !tbaa !19
  %63 = load i32, ptr %10, align 4, !tbaa !19
  %64 = add i32 %63, 1
  store i32 %64, ptr %10, align 4, !tbaa !19
  br label %18, !llvm.loop !127

65:                                               ; preds = %18
  call void @llvm.lifetime.end.p0(i64 8, ptr %13) #10
  call void @llvm.lifetime.end.p0(i64 8, ptr %12) #10
  call void @llvm.lifetime.end.p0(i64 4, ptr %11) #10
  call void @llvm.lifetime.end.p0(i64 4, ptr %10) #10
  call void @llvm.lifetime.end.p0(i64 4, ptr %9) #10
  ret void
}