; Function Attrs: nounwind uwtable
define void @prte_hwloc_build_map(ptr noundef %0, ptr noundef %1, i1 noundef zeroext %2, ptr noundef %3) local_unnamed_addr #0 {
  tail call void @hwloc_bitmap_zero(ptr noundef %3) #18
  %5 = tail call i32 @hwloc_bitmap_first(ptr noundef %1) #19
  %.not28 = icmp eq i32 %5, -1
  br i1 %.not28, label %._crit_edge, label %.lr.ph33

.lr.ph33:                                         ; preds = %4
  br i1 %2, label %.lr.ph33.split.us, label %.lr.ph33.split

.lr.ph33.split.us:                                ; preds = %.lr.ph33, %.lr.ph33.split.us
  %.01932.us = phi i32 [ %7, %.lr.ph33.split.us ], [ %5, %.lr.ph33 ]
  %6 = tail call i32 @hwloc_bitmap_set(ptr noundef %3, i32 noundef %.01932.us) #18
  %7 = tail call i32 @hwloc_bitmap_next(ptr noundef %1, i32 noundef %.01932.us) #19
  %.not.us = icmp eq i32 %7, -1
  br i1 %.not.us, label %._crit_edge, label %.lr.ph33.split.us, !llvm.loop !103

.lr.ph33.split:                                   ; preds = %.lr.ph33, %.critedge24
  %.01932 = phi i32 [ %30, %.critedge24 ], [ %5, %.lr.ph33 ]
  %.02129 = phi i32 [ %31, %.critedge24 ], [ 0, %.lr.ph33 ]
  %8 = tail call i32 @hwloc_get_type_depth(ptr noundef %0, i32 noundef 3) #18
  %or.cond.i = icmp ugt i32 %8, -3
  br i1 %or.cond.i, label %.critedge24, label %9

9:                                                ; preds = %.lr.ph33.split
  %10 = tail call ptr @hwloc_get_obj_by_depth(ptr noundef readonly %0, i32 noundef range(i32 0, -2) %8, i32 noundef 0) #19
  %.not.i.i = icmp eq ptr %10, null
  br i1 %.not.i.i, label %.critedge24, label %.preheader.i.i

.preheader.i.i:                                   ; preds = %9, %20
  %.019.i.i = phi i32 [ %.1.i.i, %20 ], [ 0, %9 ]
  %.01218.i.i = phi ptr [ %22, %20 ], [ %10, %9 ]
  %11 = getelementptr inbounds nuw i8, ptr %.01218.i.i, i64 184
  %12 = load ptr, ptr %11, align 8, !tbaa !3
  %13 = tail call i32 @hwloc_bitmap_iszero(ptr noundef %12) #19
  %.not16.i.i = icmp eq i32 %13, 0
  br i1 %.not16.i.i, label %14, label %20

14:                                               ; preds = %.preheader.i.i
  %15 = tail call i32 @hwloc_bitmap_isincluded(ptr noundef %12, ptr noundef readonly %1) #19
  %.not17.i.i = icmp eq i32 %15, 0
  br i1 %.not17.i.i, label %20, label %16

16:                                               ; preds = %14
  %17 = icmp eq i32 %.019.i.i, %.02129
  br i1 %17, label %.lr.ph, label %18

18:                                               ; preds = %16
  %19 = add i32 %.019.i.i, 1
  br label %20

20:                                               ; preds = %18, %14, %.preheader.i.i
  %.1.i.i = phi i32 [ %.019.i.i, %.preheader.i.i ], [ %19, %18 ], [ %.019.i.i, %14 ]
  %21 = getelementptr inbounds nuw i8, ptr %.01218.i.i, i64 56
  %22 = load ptr, ptr %21, align 8, !tbaa !42
  %.not15.i.i = icmp eq ptr %22, null
  br i1 %.not15.i.i, label %.critedge24, label %.preheader.i.i, !llvm.loop !104

.lr.ph:                                           ; preds = %16, %24
  %.027 = phi ptr [ %26, %24 ], [ %.01218.i.i, %16 ]
  %23 = load i32, ptr %.027, align 8, !tbaa !81
  %.not23 = icmp eq i32 %23, 2
  br i1 %.not23, label %.critedge, label %24

24:                                               ; preds = %.lr.ph
  %25 = getelementptr inbounds nuw i8, ptr %.027, i64 72
  %26 = load ptr, ptr %25, align 8, !tbaa !105
  %.not22 = icmp eq ptr %26, null
  br i1 %.not22, label %.critedge24, label %.lr.ph, !llvm.loop !106

.critedge:                                        ; preds = %.lr.ph
  %27 = getelementptr inbounds nuw i8, ptr %.027, i64 52
  %28 = load i32, ptr %27, align 4, !tbaa !107
  br label %.critedge24

.critedge24:                                      ; preds = %20, %24, %9, %.lr.ph33.split, %.critedge
  %.020 = phi i32 [ %28, %.critedge ], [ 0, %.lr.ph33.split ], [ 0, %9 ], [ 0, %24 ], [ 0, %20 ]
  %29 = tail call i32 @hwloc_bitmap_set(ptr noundef %3, i32 noundef %.020) #18
  %30 = tail call i32 @hwloc_bitmap_next(ptr noundef %1, i32 noundef %.01932) #19
  %31 = add i32 %.02129, 1
  %.not = icmp eq i32 %30, -1
  br i1 %.not, label %._crit_edge, label %.lr.ph33.split, !llvm.loop !103

._crit_edge:                                      ; preds = %.critedge24, %.lr.ph33.split.us, %4
  ret void
}